target datalayout = "e-m:e-p270:32:32-p271:32:32-p272:64:64-i64:64-i128:128-f80:128-n8:16:32:64-S128"
target triple = "x86_64-pc-linux-gnu"

%struct._MRIStepInnerStepper = type { ptr, ptr, ptr, ptr, i32, i32, i32, double, double, ptr, ptr, i64, i64, i64, i64 }
%struct._MRIStepInnerStepper_Ops = type { ptr, ptr, ptr, ptr, ptr, ptr }
%struct.SUNStepper_ = type { ptr, ptr, ptr, i32 }

@.str = private unnamed_addr constant [123 x i8] c"generated/home/dtcxzyw/WorkSpace/Projects/compilers/llvm-opt-benchmark/bench/sundials/sundials/src/arkode/arkode_mristep.c\00", align 1
@__func__.MRIStepInnerStepper_SetContent = private unnamed_addr constant [31 x i8] c"MRIStepInnerStepper_SetContent\00", align 1
@.str.96 = private unnamed_addr constant [29 x i8] c"Inner stepper memory is NULL\00", align 1
@__func__.MRIStepInnerStepper_SetEvolveFn = private unnamed_addr constant [32 x i8] c"MRIStepInnerStepper_SetEvolveFn\00", align 1
@.str.97 = private unnamed_addr constant [43 x i8] c"Inner stepper operations structure is NULL\00", align 1
@__func__.MRIStepInnerStepper_SetFullRhsFn = private unnamed_addr constant [33 x i8] c"MRIStepInnerStepper_SetFullRhsFn\00", align 1

; Function Attrs: nounwind uwtable
define i32 @MRIStepInnerStepper_SetFullRhsFn(ptr noundef %0, ptr noundef %1) #0 {
  %3 = alloca i32, align 4
  %4 = alloca ptr, align 8
  %5 = alloca ptr, align 8
  store ptr %0, ptr %4, align 8, !tbaa !11
  store ptr %1, ptr %5, align 8, !tbaa !3
  %6 = load ptr, ptr %4, align 8, !tbaa !11
  %7 = icmp eq ptr %6, null
  br i1 %7, label %8, label %9

8:                                                ; preds = %2
  call void (ptr, i32, i32, ptr, ptr, ptr, ...) @arkProcessError(ptr noundef null, i32 noundef -22, i32 noundef 4383, ptr noundef @__func__.MRIStepInnerStepper_SetFullRhsFn, ptr noundef @.str, ptr noundef @.str.96)
  store i32 -22, ptr %3, align 4
  br label %21

9:                                                ; preds = %2
  %10 = load ptr, ptr %4, align 8, !tbaa !11
  %11 = getelementptr inbounds nuw %struct._MRIStepInnerStepper, ptr %10, i32 0, i32 1
  %12 = load ptr, ptr %11, align 8, !tbaa !173
  %13 = icmp eq ptr %12, null
  br i1 %13, label %14, label %15

14:                                               ; preds = %9
  call void (ptr, i32, i32, ptr, ptr, ptr, ...) @arkProcessError(ptr noundef null, i32 noundef -22, i32 noundef 4390, ptr noundef @__func__.MRIStepInnerStepper_SetFullRhsFn, ptr noundef @.str, ptr noundef @.str.97)
  store i32 -22, ptr %3, align 4
  br label %21

15:                                               ; preds = %9
  %16 = load ptr, ptr %5, align 8, !tbaa !3
  %17 = load ptr, ptr %4, align 8, !tbaa !11
  %18 = getelementptr inbounds nuw %struct._MRIStepInnerStepper, ptr %17, i32 0, i32 1
  %19 = load ptr, ptr %18, align 8, !tbaa !173
  %20 = getelementptr inbounds nuw %struct._MRIStepInnerStepper_Ops, ptr %19, i32 0, i32 1
  store ptr %16, ptr %20, align 8, !tbaa !176
  store i32 0, ptr %3, align 4
  br label %21

21:                                               ; preds = %15, %14, %8
  %22 = load i32, ptr %3, align 4
  ret i32 %22
}

; Function Attrs: nounwind uwtable
define i32 @MRIStepInnerStepper_SetEvolveFn(ptr noundef %0, ptr noundef %1) #0 {
  %3 = alloca i32, align 4
  %4 = alloca ptr, align 8
  %5 = alloca ptr, align 8
  store ptr %0, ptr %4, align 8, !tbaa !11
  store ptr %1, ptr %5, align 8, !tbaa !3
  %6 = load ptr, ptr %4, align 8, !tbaa !11
  %7 = icmp eq ptr %6, null
  br i1 %7, label %8, label %9

8:                                                ; preds = %2
  call void (ptr, i32, i32, ptr, ptr, ptr, ...) @arkProcessError(ptr noundef null, i32 noundef -22, i32 noundef 4361, ptr noundef @__func__.MRIStepInnerStepper_SetEvolveFn, ptr noundef @.str, ptr noundef @.str.96)
  store i32 -22, ptr %3, align 4
  br label %21

9:                                                ; preds = %2
  %10 = load ptr, ptr %4, align 8, !tbaa !11
  %11 = getelementptr inbounds nuw %struct._MRIStepInnerStepper, ptr %10, i32 0, i32 1
  %12 = load ptr, ptr %11, align 8, !tbaa !173
  %13 = icmp eq ptr %12, null
  br i1 %13, label %14, label %15

14:                                               ; preds = %9
  call void (ptr, i32, i32, ptr, ptr, ptr, ...) @arkProcessError(ptr noundef null, i32 noundef -22, i32 noundef 4368, ptr noundef @__func__.MRIStepInnerStepper_SetEvolveFn, ptr noundef @.str, ptr noundef @.str.97)
  store i32 -22, ptr %3, align 4
  br label %21

15:                                               ; preds = %9
  %16 = load ptr, ptr %5, align 8, !tbaa !3
  %17 = load ptr, ptr %4, align 8, !tbaa !11
  %18 = getelementptr inbounds nuw %struct._MRIStepInnerStepper, ptr %17, i32 0, i32 1
  %19 = load ptr, ptr %18, align 8, !tbaa !173
  %20 = getelementptr inbounds nuw %struct._MRIStepInnerStepper_Ops, ptr %19, i32 0, i32 0
  store ptr %16, ptr %20, align 8, !tbaa !219
  store i32 0, ptr %3, align 4
  br label %21

21:                                               ; preds = %15, %14, %8
  %22 = load i32, ptr %3, align 4
  ret i32 %22
}

; Function Attrs: nounwind uwtable
define i32 @MRIStepInnerStepper_SetContent(ptr noundef %0, ptr noundef %1) #0 {
  %3 = alloca i32, align 4
  %4 = alloca ptr, align 8
  %5 = alloca ptr, align 8
  store ptr %0, ptr %4, align 8, !tbaa !11
  store ptr %1, ptr %5, align 8, !tbaa !3
  %6 = load ptr, ptr %4, align 8, !tbaa !11
  %7 = icmp eq ptr %6, null
  br i1 %7, label %8, label %9

8:                                                ; preds = %2
  call void (ptr, i32, i32, ptr, ptr, ptr, ...) @arkProcessError(ptr noundef null, i32 noundef -22, i32 noundef 4334, ptr noundef @__func__.MRIStepInnerStepper_SetContent, ptr noundef @.str, ptr noundef @.str.96)
  store i32 -22, ptr %3, align 4
  br label %13

9:                                                ; preds = %2
  %10 = load ptr, ptr %5, align 8, !tbaa !3
  %11 = load ptr, ptr %4, align 8, !tbaa !11
  %12 = getelementptr inbounds nuw %struct._MRIStepInnerStepper, ptr %11, i32 0, i32 0
  store ptr %10, ptr %12, align 8, !tbaa !263
  store i32 0, ptr %3, align 4
  br label %13

13:                                               ; preds = %9, %8
  %14 = load i32, ptr %3, align 4
  ret i32 %14
}

; Function Attrs: nounwind uwtable
define i32 @MRIStepInnerStepper_CreateFromSUNStepper(ptr noundef %0, ptr noundef %1) #0 {
  %3 = alloca i32, align 4
  %4 = alloca ptr, align 8
  %5 = alloca ptr, align 8
  %6 = alloca i32, align 4
  %7 = alloca i32, align 4
  store ptr %0, ptr %4, align 8, !tbaa !258
  store ptr %1, ptr %5, align 8, !tbaa !255
  call void @llvm.lifetime.start.p0(i64 4, ptr %6) #8
  %8 = load ptr, ptr %4, align 8, !tbaa !258
  %9 = getelementptr inbounds nuw %struct.SUNStepper_, ptr %8, i32 0, i32 2
  %10 = load ptr, ptr %9, align 8, !tbaa !260
  %11 = load ptr, ptr %5, align 8, !tbaa !255
  %12 = call i32 @MRIStepInnerStepper_Create(ptr noundef %10, ptr noundef %11)
  store i32 %12, ptr %6, align 4, !tbaa !15
  %13 = load i32, ptr %6, align 4, !tbaa !15
  %14 = icmp ne i32 %13, 0
  br i1 %14, label %15, label %17

15:                                               ; preds = %2
  %16 = load i32, ptr %6, align 4, !tbaa !15
  store i32 %16, ptr %3, align 4
  store i32 1, ptr %7, align 4
  br label %51

17:                                               ; preds = %2
  %18 = load ptr, ptr %5, align 8, !tbaa !255
  %19 = load ptr, ptr %18, align 8, !tbaa !11
  %20 = load ptr, ptr %4, align 8, !tbaa !258
  %21 = call i32 @MRIStepInnerStepper_SetContent(ptr noundef %19, ptr noundef %20)
  store i32 %21, ptr %6, align 4, !tbaa !15
  %22 = load i32, ptr %6, align 4, !tbaa !15
  %23 = icmp ne i32 %22, 0
  br i1 %23, label %24, label %26

24:                                               ; preds = %17
  %25 = load i32, ptr %6, align 4, !tbaa !15
  store i32 %25, ptr %3, align 4
  store i32 1, ptr %7, align 4
  br label %51

26:                                               ; preds = %17
  %27 = load ptr, ptr %5, align 8, !tbaa !255
  %28 = load ptr, ptr %27, align 8, !tbaa !11
  %29 = call i32 @MRIStepInnerStepper_SetEvolveFn(ptr noundef %28, ptr noundef @mriStepInnerStepper_EvolveSUNStepper)
  store i32 %29, ptr %6, align 4, !tbaa !15
  %30 = load i32, ptr %6, align 4, !tbaa !15
  %31 = icmp ne i32 %30, 0
  br i1 %31, label %32, label %34

32:                                               ; preds = %26
  %33 = load i32, ptr %6, align 4, !tbaa !15
  store i32 %33, ptr %3, align 4
  store i32 1, ptr %7, align 4
  br label %51

34:                                               ; preds = %26
  %35 = load ptr, ptr %5, align 8, !tbaa !255
  %36 = load ptr, ptr %35, align 8, !tbaa !11
  %37 = call i32 @MRIStepInnerStepper_SetFullRhsFn(ptr noundef %36, ptr noundef @mriStepInnerStepper_FullRhsSUNStepper)
  store i32 %37, ptr %6, align 4, !tbaa !15
  %38 = load i32, ptr %6, align 4, !tbaa !15
  %39 = icmp ne i32 %38, 0
  br i1 %39, label %40, label %42

40:                                               ; preds = %34
  %41 = load i32, ptr %6, align 4, !tbaa !15
  store i32 %41, ptr %3, align 4
  store i32 1, ptr %7, align 4
  br label %51

42:                                               ; preds = %34
  %43 = load ptr, ptr %5, align 8, !tbaa !255
  %44 = load ptr, ptr %43, align 8, !tbaa !11
  %45 = call i32 @MRIStepInnerStepper_SetResetFn(ptr noundef %44, ptr noundef @mriStepInnerStepper_ResetSUNStepper)
  store i32 %45, ptr %6, align 4, !tbaa !15
  %46 = load i32, ptr %6, align 4, !tbaa !15
  %47 = icmp ne i32 %46, 0
  br i1 %47, label %48, label %50

48:                                               ; preds = %42
  %49 = load i32, ptr %6, align 4, !tbaa !15
  store i32 %49, ptr %3, align 4
  store i32 1, ptr %7, align 4
  br label %51

50:                                               ; preds = %42
  store i32 0, ptr %3, align 4
  store i32 1, ptr %7, align 4
  br label %51

51:                                               ; preds = %50, %48, %40, %32, %24, %15
  call void @llvm.lifetime.end.p0(i64 4, ptr %6) #8
  %52 = load i32, ptr %3, align 4
  ret i32 %52
}