; Function Attrs: nounwind uwtable
define range(i32 -22, 1) i32 @MRIStepInnerStepper_CreateFromSUNStepper(ptr noundef %0, ptr noundef captures(none) %1) local_unnamed_addr #0 {
  %3 = getelementptr inbounds nuw i8, ptr %0, i64 16
  %4 = load ptr, ptr %3, align 8, !tbaa !242
  %5 = tail call i32 @MRIStepInnerStepper_Create(ptr noundef %4, ptr noundef %1)
  %.not = icmp eq i32 %5, 0
  br i1 %.not, label %6, label %MRIStepInnerStepper_SetEvolveFn.exit.thread

6:                                                ; preds = %2
  %7 = load ptr, ptr %1, align 8, !tbaa !240
  %8 = icmp eq ptr %7, null
  br i1 %8, label %MRIStepInnerStepper_SetContent.exit, label %9

MRIStepInnerStepper_SetContent.exit:              ; preds = %6
  tail call void (ptr, i32, i32, ptr, ptr, ptr, ...) @arkProcessError(ptr noundef null, i32 noundef -22, i32 noundef 4334, ptr noundef nonnull @__func__.MRIStepInnerStepper_SetContent, ptr noundef nonnull @.str, ptr noundef nonnull @.str.96) #14
  br label %MRIStepInnerStepper_SetEvolveFn.exit.thread

9:                                                ; preds = %6
  store ptr %0, ptr %7, align 8, !tbaa !245
  %10 = getelementptr inbounds nuw i8, ptr %7, i64 8
  %11 = load ptr, ptr %10, align 8, !tbaa !103
  %12 = icmp eq ptr %11, null
  br i1 %12, label %13, label %14

13:                                               ; preds = %9
  tail call void (ptr, i32, i32, ptr, ptr, ptr, ...) @arkProcessError(ptr noundef null, i32 noundef -22, i32 noundef 4368, ptr noundef nonnull @__func__.MRIStepInnerStepper_SetEvolveFn, ptr noundef nonnull @.str, ptr noundef nonnull @.str.97) #14
  br label %MRIStepInnerStepper_SetEvolveFn.exit.thread

14:                                               ; preds = %9
  store ptr @mriStepInnerStepper_EvolveSUNStepper, ptr %11, align 8, !tbaa !106
  %15 = getelementptr inbounds nuw i8, ptr %11, i64 8
  store ptr @mriStepInnerStepper_FullRhsSUNStepper, ptr %15, align 8, !tbaa !165
  %16 = tail call i32 @MRIStepInnerStepper_SetResetFn(ptr noundef nonnull %7, ptr noundef nonnull @mriStepInnerStepper_ResetSUNStepper)
  br label %MRIStepInnerStepper_SetEvolveFn.exit.thread

MRIStepInnerStepper_SetEvolveFn.exit.thread:      ; preds = %13, %MRIStepInnerStepper_SetContent.exit, %14, %2
  %.0 = phi i32 [ %5, %2 ], [ -22, %MRIStepInnerStepper_SetContent.exit ], [ %16, %14 ], [ -22, %13 ]
  ret i32 %.0
}